target datalayout = "e-m:e-p270:32:32-p271:32:32-p272:64:64-i64:64-i128:128-f80:128-n8:16:32:64-S128"
target triple = "x86_64-pc-linux-gnu"

%"class.g2o::BaseUnaryEdge" = type { %"class.g2o::BaseFixedSizedEdge.base", ptr }
%"class.g2o::BaseFixedSizedEdge.base" = type { %"class.g2o::BaseEdge", [8 x i8], %"class.std::tuple" }
%"class.g2o::BaseEdge" = type { %"class.g2o::OptimizableGraph::Edge", %"class.Eigen::Matrix", %"class.Eigen::Matrix.18", %"class.Eigen::Matrix" }
%"class.g2o::OptimizableGraph::Edge" = type { %"class.g2o::HyperGraph::Edge.base", %"class.g2o::HyperGraph::DataContainer", i32, i32, ptr, i64, %"class.std::vector.1", %"class.std::vector.6", %"class.std::vector.11", %"class.std::vector.1" }
%"class.g2o::HyperGraph::Edge.base" = type <{ %"struct.g2o::HyperGraph::HyperGraphElement", %"class.std::vector", i32 }>
%"struct.g2o::HyperGraph::HyperGraphElement" = type { ptr }
%"class.std::vector" = type { %"struct.std::_Vector_base" }
%"struct.std::_Vector_base" = type { %"struct.std::_Vector_base<g2o::HyperGraph::Vertex *, std::allocator<g2o::HyperGraph::Vertex *>>::_Vector_impl" }
%"struct.std::_Vector_base<g2o::HyperGraph::Vertex *, std::allocator<g2o::HyperGraph::Vertex *>>::_Vector_impl" = type { %"struct.std::_Vector_base<g2o::HyperGraph::Vertex *, std::allocator<g2o::HyperGraph::Vertex *>>::_Vector_impl_data" }
%"struct.std::_Vector_base<g2o::HyperGraph::Vertex *, std::allocator<g2o::HyperGraph::Vertex *>>::_Vector_impl_data" = type { ptr, ptr, ptr }
%"class.g2o::HyperGraph::DataContainer" = type { ptr, ptr }
%"class.std::vector.6" = type { %"struct.std::_Vector_base.7" }
%"struct.std::_Vector_base.7" = type { %"struct.std::_Vector_base<std::__cxx11::basic_string<char>, std::allocator<std::__cxx11::basic_string<char>>>::_Vector_impl" }
%"struct.std::_Vector_base<std::__cxx11::basic_string<char>, std::allocator<std::__cxx11::basic_string<char>>>::_Vector_impl" = type { %"struct.std::_Vector_base<std::__cxx11::basic_string<char>, std::allocator<std::__cxx11::basic_string<char>>>::_Vector_impl_data" }
%"struct.std::_Vector_base<std::__cxx11::basic_string<char>, std::allocator<std::__cxx11::basic_string<char>>>::_Vector_impl_data" = type { ptr, ptr, ptr }
%"class.std::vector.11" = type { %"struct.std::_Vector_base.12" }
%"struct.std::_Vector_base.12" = type { %"struct.std::_Vector_base<g2o::Parameter **, std::allocator<g2o::Parameter **>>::_Vector_impl" }
%"struct.std::_Vector_base<g2o::Parameter **, std::allocator<g2o::Parameter **>>::_Vector_impl" = type { %"struct.std::_Vector_base<g2o::Parameter **, std::allocator<g2o::Parameter **>>::_Vector_impl_data" }
%"struct.std::_Vector_base<g2o::Parameter **, std::allocator<g2o::Parameter **>>::_Vector_impl_data" = type { ptr, ptr, ptr }
%"class.std::vector.1" = type { %"struct.std::_Vector_base.2" }
%"struct.std::_Vector_base.2" = type { %"struct.std::_Vector_base<int, std::allocator<int>>::_Vector_impl" }
%"struct.std::_Vector_base<int, std::allocator<int>>::_Vector_impl" = type { %"struct.std::_Vector_base<int, std::allocator<int>>::_Vector_impl_data" }
%"struct.std::_Vector_base<int, std::allocator<int>>::_Vector_impl_data" = type { ptr, ptr, ptr }
%"class.Eigen::Matrix.18" = type { %"class.Eigen::PlainObjectBase.19" }
%"class.Eigen::PlainObjectBase.19" = type { %"class.Eigen::DenseStorage.26" }
%"class.Eigen::DenseStorage.26" = type { %"struct.Eigen::internal::plain_array.27" }
%"struct.Eigen::internal::plain_array.27" = type { [4 x double] }
%"class.Eigen::Matrix" = type { %"class.Eigen::PlainObjectBase" }
%"class.Eigen::PlainObjectBase" = type { %"class.Eigen::DenseStorage" }
%"class.Eigen::DenseStorage" = type { %"struct.Eigen::internal::plain_array" }
%"struct.Eigen::internal::plain_array" = type { [2 x double] }
%"class.std::tuple" = type { %"struct.std::_Tuple_impl" }
%"struct.std::_Tuple_impl" = type { %"struct.std::_Head_base" }
%"struct.std::_Head_base" = type { %"class.Eigen::Map" }
%"class.Eigen::Map" = type { %"class.Eigen::MapBase.base.35", [6 x i8] }
%"class.Eigen::MapBase.base.35" = type { %"class.Eigen::MapBase.base" }
%"class.Eigen::MapBase.base" = type <{ ptr, [2 x i8] }>
%"struct.Eigen::CommaInitializer" = type { ptr, i64, i64, i64 }
%"class.Eigen::MapBase.28" = type <{ ptr, [8 x i8] }>

; Function Attrs: mustprogress nounwind uwtable
define linkonce_odr noundef i64 @_ZNK5Eigen3MapINS_6MatrixIdLi2ELi3ELi0ELi2ELi3EEELi16ENS_6StrideILi0ELi0EEEE11innerStrideEv(ptr noundef nonnull align 8 dereferenceable(12) %0) #4 comdat align 2 {
  %2 = alloca ptr, align 8
  store ptr %0, ptr %2, align 8
  ret i64 1
}

; Function Attrs: mustprogress nounwind uwtable
define linkonce_odr noundef i64 @_ZNK5Eigen3MapINS_6MatrixIdLi2ELi3ELi0ELi2ELi3EEELi16ENS_6StrideILi0ELi0EEEE11outerStrideEv(ptr noundef nonnull align 8 dereferenceable(12) %0) #4 comdat align 2 {
  %2 = alloca ptr, align 8
  store ptr %0, ptr %2, align 8
  ret i64 2
}

; Function Attrs: mustprogress nounwind uwtable
define linkonce_odr noundef nonnull align 8 dereferenceable(12) ptr @_ZNK5Eigen9EigenBaseINS_3MapINS_6MatrixIdLi2ELi3ELi0ELi2ELi3EEELi16ENS_6StrideILi0ELi0EEEEEE7derivedEv(ptr noundef nonnull align 1 dereferenceable(1) %0) #4 comdat align 2 {
  %2 = alloca ptr, align 8
  store ptr %0, ptr %2, align 8
  %3 = load ptr, ptr %2, align 8
  ret ptr %3
}

; Function Attrs: mustprogress nounwind uwtable
define linkonce_odr noundef i64 @_ZNK5Eigen15DenseCoeffsBaseINS_3MapINS_6MatrixIdLi2ELi3ELi0ELi2ELi3EEELi16ENS_6StrideILi0ELi0EEEEELi3EE11innerStrideEv(ptr noundef nonnull align 1 dereferenceable(1) %0) #4 comdat align 2 {
  %2 = alloca ptr, align 8
  store ptr %0, ptr %2, align 8
  %3 = load ptr, ptr %2, align 8
  %4 = call noundef nonnull align 8 dereferenceable(12) ptr @_ZNK5Eigen9EigenBaseINS_3MapINS_6MatrixIdLi2ELi3ELi0ELi2ELi3EEELi16ENS_6StrideILi0ELi0EEEEEE7derivedEv(ptr noundef nonnull align 1 dereferenceable(1) %3)
  %5 = call noundef i64 @_ZNK5Eigen3MapINS_6MatrixIdLi2ELi3ELi0ELi2ELi3EEELi16ENS_6StrideILi0ELi0EEEE11innerStrideEv(ptr noundef nonnull align 8 dereferenceable(12) %4)
  ret i64 %5
}

; Function Attrs: mustprogress nounwind uwtable
define linkonce_odr noundef i64 @_ZNK5Eigen15DenseCoeffsBaseINS_3MapINS_6MatrixIdLi2ELi3ELi0ELi2ELi3EEELi16ENS_6StrideILi0ELi0EEEEELi3EE11outerStrideEv(ptr noundef nonnull align 1 dereferenceable(1) %0) #4 comdat align 2 personality ptr @__gxx_personality_v0 {
  %2 = alloca ptr, align 8
  store ptr %0, ptr %2, align 8
  %3 = load ptr, ptr %2, align 8
  %4 = invoke noundef nonnull align 8 dereferenceable(12) ptr @_ZNK5Eigen9EigenBaseINS_3MapINS_6MatrixIdLi2ELi3ELi0ELi2ELi3EEELi16ENS_6StrideILi0ELi0EEEEEE7derivedEv(ptr noundef nonnull align 1 dereferenceable(1) %3)
          to label %5 unwind label %7

5:                                                ; preds = %1
  %6 = call noundef i64 @_ZNK5Eigen3MapINS_6MatrixIdLi2ELi3ELi0ELi2ELi3EEELi16ENS_6StrideILi0ELi0EEEE11outerStrideEv(ptr noundef nonnull align 8 dereferenceable(12) %4)
  ret i64 %6

7:                                                ; preds = %1
  %8 = landingpad { ptr, i32 }
          catch ptr null
  %9 = extractvalue { ptr, i32 } %8, 0
  call void @__clang_call_terminate(ptr %9) #15
  unreachable
}

; Function Attrs: mustprogress nounwind uwtable
define linkonce_odr noundef i64 @_ZNK5Eigen15DenseCoeffsBaseINS_3MapINS_6MatrixIdLi2ELi3ELi0ELi2ELi3EEELi16ENS_6StrideILi0ELi0EEEEELi3EE9rowStrideEv(ptr noundef nonnull align 1 dereferenceable(1) %0) #4 comdat align 2 {
  %2 = alloca ptr, align 8
  store ptr %0, ptr %2, align 8
  %3 = load ptr, ptr %2, align 8
  %4 = call noundef i64 @_ZNK5Eigen15DenseCoeffsBaseINS_3MapINS_6MatrixIdLi2ELi3ELi0ELi2ELi3EEELi16ENS_6StrideILi0ELi0EEEEELi3EE11innerStrideEv(ptr noundef nonnull align 1 dereferenceable(1) %3) #3
  ret i64 %4
}

; Function Attrs: mustprogress nounwind uwtable
define linkonce_odr noundef i64 @_ZNK5Eigen15DenseCoeffsBaseINS_3MapINS_6MatrixIdLi2ELi3ELi0ELi2ELi3EEELi16ENS_6StrideILi0ELi0EEEEELi3EE9colStrideEv(ptr noundef nonnull align 1 dereferenceable(1) %0) #4 comdat align 2 {
  %2 = alloca ptr, align 8
  store ptr %0, ptr %2, align 8
  %3 = load ptr, ptr %2, align 8
  %4 = call noundef i64 @_ZNK5Eigen15DenseCoeffsBaseINS_3MapINS_6MatrixIdLi2ELi3ELi0ELi2ELi3EEELi16ENS_6StrideILi0ELi0EEEEELi3EE11outerStrideEv(ptr noundef nonnull align 1 dereferenceable(1) %3) #3
  ret i64 %4
}

; Function Attrs: mustprogress nounwind uwtable
define linkonce_odr noundef i64 @_ZN5Eigen8internal19variable_if_dynamicIlLi3EE5valueEv() #4 comdat align 2 {
  ret i64 3
}

; Function Attrs: noreturn nounwind uwtable
define linkonce_odr hidden void @__clang_call_terminate(ptr noundef %0) #12 comdat {
  %2 = call ptr @__cxa_begin_catch(ptr %0) #3
  call void @_ZSt9terminatev() #15
  unreachable
}

; Function Attrs: mustprogress nounwind uwtable
define linkonce_odr noundef nonnull align 8 dereferenceable(12) ptr @_ZN5Eigen16CommaInitializerINS_3MapINS_6MatrixIdLi2ELi3ELi0ELi2ELi3EEELi16ENS_6StrideILi0ELi0EEEEEE8finishedEv(ptr noundef nonnull align 8 dereferenceable(32) %0) #4 comdat align 2 {
  %2 = alloca ptr, align 8
  store ptr %0, ptr %2, align 8
  %3 = load ptr, ptr %2, align 8
  %4 = getelementptr inbounds nuw %"struct.Eigen::CommaInitializer", ptr %3, i32 0, i32 0
  %5 = load ptr, ptr %4, align 8
  ret ptr %5
}

; Function Attrs: mustprogress nounwind uwtable
define linkonce_odr noundef nonnull align 8 dereferenceable(8) ptr @_ZN5Eigen7MapBaseINS_3MapINS_6MatrixIdLi2ELi3ELi0ELi2ELi3EEELi16ENS_6StrideILi0ELi0EEEEELi1EE8coeffRefEll(ptr noundef nonnull align 8 dereferenceable(10) %0, i64 noundef %1, i64 noundef %2) #4 comdat align 2 {
  %4 = alloca ptr, align 8
  %5 = alloca i64, align 8
  %6 = alloca i64, align 8
  store ptr %0, ptr %4, align 8
  store i64 %1, ptr %5, align 8
  store i64 %2, ptr %6, align 8
  %7 = load ptr, ptr %4, align 8
  %8 = getelementptr inbounds nuw %"class.Eigen::MapBase.28", ptr %7, i32 0, i32 0
  %9 = load ptr, ptr %8, align 8
  %10 = load i64, ptr %6, align 8
  %11 = call noundef i64 @_ZNK5Eigen15DenseCoeffsBaseINS_3MapINS_6MatrixIdLi2ELi3ELi0ELi2ELi3EEELi16ENS_6StrideILi0ELi0EEEEELi3EE9colStrideEv(ptr noundef nonnull align 1 dereferenceable(1) %7) #3
  %12 = mul nsw i64 %10, %11
  %13 = load i64, ptr %5, align 8
  %14 = call noundef i64 @_ZNK5Eigen15DenseCoeffsBaseINS_3MapINS_6MatrixIdLi2ELi3ELi0ELi2ELi3EEELi16ENS_6StrideILi0ELi0EEEEELi3EE9rowStrideEv(ptr noundef nonnull align 1 dereferenceable(1) %7) #3
  %15 = mul nsw i64 %13, %14
  %16 = add nsw i64 %12, %15
  %17 = getelementptr inbounds double, ptr %9, i64 %16
  ret ptr %17
}

; Function Attrs: mustprogress nounwind uwtable
define linkonce_odr noundef i64 @_ZNK5Eigen7MapBaseINS_3MapINS_6MatrixIdLi2ELi3ELi0ELi2ELi3EEELi16ENS_6StrideILi0ELi0EEEEELi0EE4colsEv(ptr noundef nonnull align 8 dereferenceable(10) %0) #4 comdat align 2 personality ptr @__gxx_personality_v0 {
  %2 = alloca ptr, align 8
  store ptr %0, ptr %2, align 8
  %3 = invoke noundef i64 @_ZN5Eigen8internal19variable_if_dynamicIlLi3EE5valueEv()
          to label %4 unwind label %5

4:                                                ; preds = %1
  ret i64 %3

5:                                                ; preds = %1
  %6 = landingpad { ptr, i32 }
          catch ptr null
  %7 = extractvalue { ptr, i32 } %6, 0
  call void @__clang_call_terminate(ptr %7) #15
  unreachable
}

; Function Attrs: mustprogress uwtable
define linkonce_odr void @_ZN5Eigen16CommaInitializerINS_3MapINS_6MatrixIdLi2ELi3ELi0ELi2ELi3EEELi16ENS_6StrideILi0ELi0EEEEEEC2ERS6_RKd(ptr noundef nonnull align 8 dereferenceable(32) %0, ptr noundef nonnull align 8 dereferenceable(12) %1, ptr noundef nonnull align 8 dereferenceable(8) %2) unnamed_addr #5 comdat align 2 {
  %4 = alloca ptr, align 8
  %5 = alloca ptr, align 8
  %6 = alloca ptr, align 8
  store ptr %0, ptr %4, align 8
  store ptr %1, ptr %5, align 8
  store ptr %2, ptr %6, align 8
  %7 = load ptr, ptr %4, align 8
  %8 = getelementptr inbounds nuw %"struct.Eigen::CommaInitializer", ptr %7, i32 0, i32 0
  %9 = load ptr, ptr %5, align 8
  store ptr %9, ptr %8, align 8
  %10 = getelementptr inbounds nuw %"struct.Eigen::CommaInitializer", ptr %7, i32 0, i32 1
  store i64 0, ptr %10, align 8
  %11 = getelementptr inbounds nuw %"struct.Eigen::CommaInitializer", ptr %7, i32 0, i32 2
  store i64 1, ptr %11, align 8
  %12 = getelementptr inbounds nuw %"struct.Eigen::CommaInitializer", ptr %7, i32 0, i32 3
  store i64 1, ptr %12, align 8
  %13 = load ptr, ptr %6, align 8
  %14 = load double, ptr %13, align 8
  %15 = getelementptr inbounds nuw %"struct.Eigen::CommaInitializer", ptr %7, i32 0, i32 0
  %16 = load ptr, ptr %15, align 8
  %17 = call noundef nonnull align 8 dereferenceable(8) ptr @_ZN5Eigen7MapBaseINS_3MapINS_6MatrixIdLi2ELi3ELi0ELi2ELi3EEELi16ENS_6StrideILi0ELi0EEEEELi1EE8coeffRefEll(ptr noundef nonnull align 8 dereferenceable(10) %16, i64 noundef 0, i64 noundef 0)
  store double %14, ptr %17, align 8
  ret void
}

; Function Attrs: mustprogress nounwind uwtable
define linkonce_odr void @_ZN5Eigen16CommaInitializerINS_3MapINS_6MatrixIdLi2ELi3ELi0ELi2ELi3EEELi16ENS_6StrideILi0ELi0EEEEEED2Ev(ptr noundef nonnull align 8 dereferenceable(32) %0) unnamed_addr #4 comdat align 2 personality ptr @__gxx_personality_v0 {
  %2 = alloca ptr, align 8
  store ptr %0, ptr %2, align 8
  %3 = load ptr, ptr %2, align 8
  %4 = invoke noundef nonnull align 8 dereferenceable(12) ptr @_ZN5Eigen16CommaInitializerINS_3MapINS_6MatrixIdLi2ELi3ELi0ELi2ELi3EEELi16ENS_6StrideILi0ELi0EEEEEE8finishedEv(ptr noundef nonnull align 8 dereferenceable(32) %3)
          to label %5 unwind label %6

5:                                                ; preds = %1
  ret void

6:                                                ; preds = %1
  %7 = landingpad { ptr, i32 }
          catch ptr null
  %8 = extractvalue { ptr, i32 } %7, 0
  call void @__clang_call_terminate(ptr %8) #15
  unreachable
}

; Function Attrs: mustprogress nounwind uwtable
define linkonce_odr noundef nonnull align 8 dereferenceable(32) ptr @_ZN5Eigen16CommaInitializerINS_3MapINS_6MatrixIdLi2ELi3ELi0ELi2ELi3EEELi16ENS_6StrideILi0ELi0EEEEEEcmERKd(ptr noundef nonnull align 8 dereferenceable(32) %0, ptr noundef nonnull align 8 dereferenceable(8) %1) #4 comdat align 2 {
  %3 = alloca ptr, align 8
  %4 = alloca ptr, align 8
  store ptr %0, ptr %3, align 8
  store ptr %1, ptr %4, align 8
  %5 = load ptr, ptr %3, align 8
  %6 = getelementptr inbounds nuw %"struct.Eigen::CommaInitializer", ptr %5, i32 0, i32 2
  %7 = load i64, ptr %6, align 8
  %8 = getelementptr inbounds nuw %"struct.Eigen::CommaInitializer", ptr %5, i32 0, i32 0
  %9 = load ptr, ptr %8, align 8
  %10 = call noundef i64 @_ZNK5Eigen7MapBaseINS_3MapINS_6MatrixIdLi2ELi3ELi0ELi2ELi3EEELi16ENS_6StrideILi0ELi0EEEEELi0EE4colsEv(ptr noundef nonnull align 8 dereferenceable(10) %9) #3
  %11 = icmp eq i64 %7, %10
  br i1 %11, label %12, label %20

12:                                               ; preds = %2
  %13 = getelementptr inbounds nuw %"struct.Eigen::CommaInitializer", ptr %5, i32 0, i32 3
  %14 = load i64, ptr %13, align 8
  %15 = getelementptr inbounds nuw %"struct.Eigen::CommaInitializer", ptr %5, i32 0, i32 1
  %16 = load i64, ptr %15, align 8
  %17 = add nsw i64 %16, %14
  store i64 %17, ptr %15, align 8
  %18 = getelementptr inbounds nuw %"struct.Eigen::CommaInitializer", ptr %5, i32 0, i32 2
  store i64 0, ptr %18, align 8
  %19 = getelementptr inbounds nuw %"struct.Eigen::CommaInitializer", ptr %5, i32 0, i32 3
  store i64 1, ptr %19, align 8
  br label %20

20:                                               ; preds = %12, %2
  %21 = load ptr, ptr %4, align 8
  %22 = load double, ptr %21, align 8
  %23 = getelementptr inbounds nuw %"struct.Eigen::CommaInitializer", ptr %5, i32 0, i32 0
  %24 = load ptr, ptr %23, align 8
  %25 = getelementptr inbounds nuw %"struct.Eigen::CommaInitializer", ptr %5, i32 0, i32 1
  %26 = load i64, ptr %25, align 8
  %27 = getelementptr inbounds nuw %"struct.Eigen::CommaInitializer", ptr %5, i32 0, i32 2
  %28 = load i64, ptr %27, align 8
  %29 = add nsw i64 %28, 1
  store i64 %29, ptr %27, align 8
  %30 = call noundef nonnull align 8 dereferenceable(8) ptr @_ZN5Eigen7MapBaseINS_3MapINS_6MatrixIdLi2ELi3ELi0ELi2ELi3EEELi16ENS_6StrideILi0ELi0EEEEELi1EE8coeffRefEll(ptr noundef nonnull align 8 dereferenceable(10) %24, i64 noundef %26, i64 noundef %28)
  store double %22, ptr %30, align 8
  ret ptr %5
}

; Function Attrs: mustprogress uwtable
define linkonce_odr void @_ZN5Eigen9DenseBaseINS_3MapINS_6MatrixIdLi2ELi3ELi0ELi2ELi3EEELi16ENS_6StrideILi0ELi0EEEEEElsERKd(ptr dead_on_unwind noalias writable sret(%"struct.Eigen::CommaInitializer") align 8 %0, ptr noundef nonnull align 1 dereferenceable(1) %1, ptr noundef nonnull align 8 dereferenceable(8) %2) #5 comdat align 2 {
  %4 = alloca ptr, align 8
  %5 = alloca ptr, align 8
  %6 = alloca ptr, align 8
  store ptr %0, ptr %4, align 8
  store ptr %1, ptr %5, align 8
  store ptr %2, ptr %6, align 8
  %7 = load ptr, ptr %5, align 8
  %8 = load ptr, ptr %6, align 8
  call void @_ZN5Eigen16CommaInitializerINS_3MapINS_6MatrixIdLi2ELi3ELi0ELi2ELi3EEELi16ENS_6StrideILi0ELi0EEEEEEC2ERS6_RKd(ptr noundef nonnull align 8 dereferenceable(32) %0, ptr noundef nonnull align 8 dereferenceable(12) %7, ptr noundef nonnull align 8 dereferenceable(8) %8)
  ret void
}

; Function Attrs: mustprogress uwtable
define void @_ZN3g2o14EdgeSE2XYPrior14linearizeOplusEv(ptr noundef nonnull align 16 dereferenceable(272) %0) unnamed_addr #5 align 2 personality ptr @__gxx_personality_v0 {
  %2 = alloca ptr, align 8
  %3 = alloca %"struct.Eigen::CommaInitializer", align 8
  %4 = alloca double, align 8
  %5 = alloca double, align 8
  %6 = alloca ptr, align 8
  %7 = alloca i32, align 4
  %8 = alloca double, align 8
  %9 = alloca double, align 8
  %10 = alloca double, align 8
  %11 = alloca double, align 8
  store ptr %0, ptr %2, align 8
  %12 = load ptr, ptr %2, align 8
  %13 = getelementptr inbounds nuw %"class.g2o::BaseUnaryEdge", ptr %12, i32 0, i32 1
  %14 = load ptr, ptr %13, align 8
  store double 1.000000e+00, ptr %4, align 8
  call void @_ZN5Eigen9DenseBaseINS_3MapINS_6MatrixIdLi2ELi3ELi0ELi2ELi3EEELi16ENS_6StrideILi0ELi0EEEEEElsERKd(ptr dead_on_unwind writable sret(%"struct.Eigen::CommaInitializer") align 8 %3, ptr noundef nonnull align 1 dereferenceable(1) %14, ptr noundef nonnull align 8 dereferenceable(8) %4)
  store double 0.000000e+00, ptr %5, align 8
  %15 = invoke noundef nonnull align 8 dereferenceable(32) ptr @_ZN5Eigen16CommaInitializerINS_3MapINS_6MatrixIdLi2ELi3ELi0ELi2ELi3EEELi16ENS_6StrideILi0ELi0EEEEEEcmERKd(ptr noundef nonnull align 8 dereferenceable(32) %3, ptr noundef nonnull align 8 dereferenceable(8) %5)
          to label %16 unwind label %25

16:                                               ; preds = %1
  store double 0.000000e+00, ptr %8, align 8
  %17 = invoke noundef nonnull align 8 dereferenceable(32) ptr @_ZN5Eigen16CommaInitializerINS_3MapINS_6MatrixIdLi2ELi3ELi0ELi2ELi3EEELi16ENS_6StrideILi0ELi0EEEEEEcmERKd(ptr noundef nonnull align 8 dereferenceable(32) %15, ptr noundef nonnull align 8 dereferenceable(8) %8)
          to label %18 unwind label %25

18:                                               ; preds = %16
  store double 0.000000e+00, ptr %9, align 8
  %19 = invoke noundef nonnull align 8 dereferenceable(32) ptr @_ZN5Eigen16CommaInitializerINS_3MapINS_6MatrixIdLi2ELi3ELi0ELi2ELi3EEELi16ENS_6StrideILi0ELi0EEEEEEcmERKd(ptr noundef nonnull align 8 dereferenceable(32) %17, ptr noundef nonnull align 8 dereferenceable(8) %9)
          to label %20 unwind label %25

20:                                               ; preds = %18
  store double 1.000000e+00, ptr %10, align 8
  %21 = invoke noundef nonnull align 8 dereferenceable(32) ptr @_ZN5Eigen16CommaInitializerINS_3MapINS_6MatrixIdLi2ELi3ELi0ELi2ELi3EEELi16ENS_6StrideILi0ELi0EEEEEEcmERKd(ptr noundef nonnull align 8 dereferenceable(32) %19, ptr noundef nonnull align 8 dereferenceable(8) %10)
          to label %22 unwind label %25

22:                                               ; preds = %20
  store double 0.000000e+00, ptr %11, align 8
  %23 = invoke noundef nonnull align 8 dereferenceable(32) ptr @_ZN5Eigen16CommaInitializerINS_3MapINS_6MatrixIdLi2ELi3ELi0ELi2ELi3EEELi16ENS_6StrideILi0ELi0EEEEEEcmERKd(ptr noundef nonnull align 8 dereferenceable(32) %21, ptr noundef nonnull align 8 dereferenceable(8) %11)
          to label %24 unwind label %25

24:                                               ; preds = %22
  call void @_ZN5Eigen16CommaInitializerINS_3MapINS_6MatrixIdLi2ELi3ELi0ELi2ELi3EEELi16ENS_6StrideILi0ELi0EEEEEED2Ev(ptr noundef nonnull align 8 dereferenceable(32) %3) #3
  ret void

25:                                               ; preds = %22, %20, %18, %16, %1
  %26 = landingpad { ptr, i32 }
          cleanup
  %27 = extractvalue { ptr, i32 } %26, 0
  store ptr %27, ptr %6, align 8
  %28 = extractvalue { ptr, i32 } %26, 1
  store i32 %28, ptr %7, align 4
  call void @_ZN5Eigen16CommaInitializerINS_3MapINS_6MatrixIdLi2ELi3ELi0ELi2ELi3EEELi16ENS_6StrideILi0ELi0EEEEEED2Ev(ptr noundef nonnull align 8 dereferenceable(32) %3) #3
  br label %29

29:                                               ; preds = %25
  %30 = load ptr, ptr %6, align 8
  %31 = load i32, ptr %7, align 4
  %32 = insertvalue { ptr, i32 } poison, ptr %30, 0
  %33 = insertvalue { ptr, i32 } %32, i32 %31, 1
  resume { ptr, i32 } %33
}