; Function Attrs: mustprogress nofree norecurse nosync nounwind willreturn memory(readwrite, inaccessiblemem: none) uwtable
define void @_ZN3g2o14EdgeSE2XYPrior14linearizeOplusEv(ptr nocapture noundef nonnull readonly align 16 dereferenceable(272) %0) unnamed_addr #4 align 2 personality ptr @__gxx_personality_v0 {
_ZN5Eigen16CommaInitializerINS_3MapINS_6MatrixIdLi2ELi3ELi0ELi2ELi3EEELi16ENS_6StrideILi0ELi0EEEEEEcmERKd.exit:
  %1 = getelementptr inbounds nuw i8, ptr %0, i64 264
  %2 = load ptr, ptr %1, align 8
  %3 = load ptr, ptr %2, align 8, !noalias !10
  store double 1.000000e+00, ptr %3, align 8, !noalias !10
  %4 = load ptr, ptr %2, align 8
  %5 = getelementptr i8, ptr %4, i64 16
  store double 0.000000e+00, ptr %5, align 8
  %6 = load ptr, ptr %2, align 8
  %7 = getelementptr i8, ptr %6, i64 32
  store double 0.000000e+00, ptr %7, align 8
  %8 = load ptr, ptr %2, align 8
  %9 = getelementptr i8, ptr %8, i64 8
  store double 0.000000e+00, ptr %9, align 8
  %10 = load ptr, ptr %2, align 8
  %11 = getelementptr i8, ptr %10, i64 24
  store double 1.000000e+00, ptr %11, align 8
  %12 = load ptr, ptr %2, align 8
  %13 = getelementptr i8, ptr %12, i64 40
  store double 0.000000e+00, ptr %13, align 8
  ret void
}